; Function Attrs: mustprogress uwtable
define void @_ZN6icu_756number4impl17ParsedPatternInfo14consumePatternERKNS_13UnicodeStringER10UErrorCode(ptr noundef nonnull align 8 dereferenceable(433) %this, ptr noundef nonnull align 8 dereferenceable(64) %patternString, ptr nocapture noundef nonnull align 4 dereferenceable(4) %status) local_unnamed_addr #1 align 2 {
entry:
  %0 = load i32, ptr %status, align 4
  %cmp.i = icmp slt i32 %0, 1
  br i1 %cmp.i, label %if.end, label %if.end27

if.end:                                           ; preds = %entry
  %pattern = getelementptr inbounds i8, ptr %this, i64 8
  %call2 = tail call noundef nonnull align 8 dereferenceable(64) ptr @_ZN6icu_7513UnicodeStringaSERKS0_(ptr noundef nonnull align 8 dereferenceable(64) %pattern, ptr noundef nonnull align 8 dereferenceable(64) %patternString)
  %positive = getelementptr inbounds i8, ptr %this, i64 72
  %currentSubpattern = getelementptr inbounds i8, ptr %this, i64 424
  store ptr %positive, ptr %currentSubpattern, align 8
  tail call void @_ZN6icu_756number4impl17ParsedPatternInfo17consumeSubpatternER10UErrorCode(ptr noundef nonnull align 8 dereferenceable(433) %this, ptr noundef nonnull align 4 dereferenceable(4) %status)
  %1 = load i32, ptr %status, align 4
  %cmp.i6 = icmp slt i32 %1, 1
  br i1 %cmp.i6, label %if.end6, label %if.end27

if.end6:                                          ; preds = %if.end
  %state = getelementptr inbounds i8, ptr %this, i64 408
  %offset.i = getelementptr inbounds i8, ptr %this, i64 416
  %2 = load i32, ptr %offset.i, align 8
  %3 = load ptr, ptr %state, align 8
  %fUnion.i.i.i = getelementptr inbounds i8, ptr %3, i64 8
  %4 = load i16, ptr %fUnion.i.i.i, align 8
  %cmp.i.i.i = icmp slt i16 %4, 0
  %5 = ashr i16 %4, 5
  %shr.i.i.i = sext i16 %5 to i32
  %fLength.i.i = getelementptr inbounds i8, ptr %3, i64 12
  %6 = load i32, ptr %fLength.i.i, align 4
  %cond.i.i = select i1 %cmp.i.i.i, i32 %6, i32 %shr.i.i.i
  %cmp.i8 = icmp eq i32 %2, %cond.i.i
  br i1 %cmp.i8, label %if.end21, label %_ZN6icu_756number4impl17ParsedPatternInfo11ParserState4peekEv.exit

_ZN6icu_756number4impl17ParsedPatternInfo11ParserState4peekEv.exit: ; preds = %if.end6
  %call4.i = tail call noundef i32 @_ZNK6icu_7513UnicodeString8char32AtEi(ptr noundef nonnull align 8 dereferenceable(64) %3, i32 noundef %2)
  %cmp = icmp eq i32 %call4.i, 59
  br i1 %cmp, label %if.then8, label %if.end21

if.then8:                                         ; preds = %_ZN6icu_756number4impl17ParsedPatternInfo11ParserState4peekEv.exit
  %7 = load i32, ptr %offset.i, align 8
  %8 = load ptr, ptr %state, align 8
  %fUnion.i.i.i.i = getelementptr inbounds i8, ptr %8, i64 8
  %9 = load i16, ptr %fUnion.i.i.i.i, align 8
  %cmp.i.i.i.i = icmp slt i16 %9, 0
  %10 = ashr i16 %9, 5
  %shr.i.i.i.i = sext i16 %10 to i32
  %fLength.i.i.i = getelementptr inbounds i8, ptr %8, i64 12
  %11 = load i32, ptr %fLength.i.i.i, align 4
  %cond.i.i.i = select i1 %cmp.i.i.i.i, i32 %11, i32 %shr.i.i.i.i
  %cmp.i.i = icmp eq i32 %7, %cond.i.i.i
  br i1 %cmp.i.i, label %_ZN6icu_756number4impl17ParsedPatternInfo11ParserState4nextEv.exit, label %_ZN6icu_756number4impl17ParsedPatternInfo11ParserState4peekEv.exit.i

_ZN6icu_756number4impl17ParsedPatternInfo11ParserState4peekEv.exit.i: ; preds = %if.then8
  %call4.i.i = tail call noundef i32 @_ZNK6icu_7513UnicodeString8char32AtEi(ptr noundef nonnull align 8 dereferenceable(64) %8, i32 noundef %7)
  %cmp.i9 = icmp ult i32 %call4.i.i, 65536
  %spec.select.i = select i1 %cmp.i9, i32 1, i32 2
  %.pre.i = load i32, ptr %offset.i, align 8
  %.pre = load ptr, ptr %state, align 8
  br label %_ZN6icu_756number4impl17ParsedPatternInfo11ParserState4nextEv.exit

_ZN6icu_756number4impl17ParsedPatternInfo11ParserState4nextEv.exit: ; preds = %if.then8, %_ZN6icu_756number4impl17ParsedPatternInfo11ParserState4peekEv.exit.i
  %12 = phi ptr [ %8, %if.then8 ], [ %.pre, %_ZN6icu_756number4impl17ParsedPatternInfo11ParserState4peekEv.exit.i ]
  %13 = phi i32 [ %7, %if.then8 ], [ %.pre.i, %_ZN6icu_756number4impl17ParsedPatternInfo11ParserState4peekEv.exit.i ]
  %14 = phi i32 [ 2, %if.then8 ], [ %spec.select.i, %_ZN6icu_756number4impl17ParsedPatternInfo11ParserState4peekEv.exit.i ]
  %add.i = add nsw i32 %14, %13
  store i32 %add.i, ptr %offset.i, align 8
  %fUnion.i.i.i11 = getelementptr inbounds i8, ptr %12, i64 8
  %15 = load i16, ptr %fUnion.i.i.i11, align 8
  %cmp.i.i.i12 = icmp slt i16 %15, 0
  %16 = ashr i16 %15, 5
  %shr.i.i.i13 = sext i16 %16 to i32
  %fLength.i.i14 = getelementptr inbounds i8, ptr %12, i64 12
  %17 = load i32, ptr %fLength.i.i14, align 4
  %cond.i.i15 = select i1 %cmp.i.i.i12, i32 %17, i32 %shr.i.i.i13
  %cmp.i16 = icmp eq i32 %add.i, %cond.i.i15
  br i1 %cmp.i16, label %if.end21, label %_ZN6icu_756number4impl17ParsedPatternInfo11ParserState4peekEv.exit20

_ZN6icu_756number4impl17ParsedPatternInfo11ParserState4peekEv.exit20: ; preds = %_ZN6icu_756number4impl17ParsedPatternInfo11ParserState4nextEv.exit
  %call4.i18 = tail call noundef i32 @_ZNK6icu_7513UnicodeString8char32AtEi(ptr noundef nonnull align 8 dereferenceable(64) %12, i32 noundef %add.i)
  %cmp13.not = icmp eq i32 %call4.i18, -1
  br i1 %cmp13.not, label %if.end21, label %if.then14

if.then14:                                        ; preds = %_ZN6icu_756number4impl17ParsedPatternInfo11ParserState4peekEv.exit20
  %fHasNegativeSubpattern = getelementptr inbounds i8, ptr %this, i64 432
  store i8 1, ptr %fHasNegativeSubpattern, align 8
  %negative = getelementptr inbounds i8, ptr %this, i64 240
  store ptr %negative, ptr %currentSubpattern, align 8
  tail call void @_ZN6icu_756number4impl17ParsedPatternInfo17consumeSubpatternER10UErrorCode(ptr noundef nonnull align 8 dereferenceable(433) %this, ptr noundef nonnull align 4 dereferenceable(4) %status)
  %18 = load i32, ptr %status, align 4
  %cmp.i21 = icmp slt i32 %18, 1
  br i1 %cmp.i21, label %if.end21, label %if.end27

if.end21:                                         ; preds = %_ZN6icu_756number4impl17ParsedPatternInfo11ParserState4nextEv.exit, %if.end6, %_ZN6icu_756number4impl17ParsedPatternInfo11ParserState4peekEv.exit20, %if.then14, %_ZN6icu_756number4impl17ParsedPatternInfo11ParserState4peekEv.exit
  %19 = load i32, ptr %offset.i, align 8
  %20 = load ptr, ptr %state, align 8
  %fUnion.i.i.i24 = getelementptr inbounds i8, ptr %20, i64 8
  %21 = load i16, ptr %fUnion.i.i.i24, align 8
  %cmp.i.i.i25 = icmp slt i16 %21, 0
  %22 = ashr i16 %21, 5
  %shr.i.i.i26 = sext i16 %22 to i32
  %fLength.i.i27 = getelementptr inbounds i8, ptr %20, i64 12
  %23 = load i32, ptr %fLength.i.i27, align 4
  %cond.i.i28 = select i1 %cmp.i.i.i25, i32 %23, i32 %shr.i.i.i26
  %cmp.i29 = icmp eq i32 %19, %cond.i.i28
  br i1 %cmp.i29, label %if.end27, label %_ZN6icu_756number4impl17ParsedPatternInfo11ParserState4peekEv.exit33

_ZN6icu_756number4impl17ParsedPatternInfo11ParserState4peekEv.exit33: ; preds = %if.end21
  %call4.i31 = tail call noundef i32 @_ZNK6icu_7513UnicodeString8char32AtEi(ptr noundef nonnull align 8 dereferenceable(64) %20, i32 noundef %19)
  %cmp24.not = icmp eq i32 %call4.i31, -1
  br i1 %cmp24.not, label %if.end27, label %if.then25

if.then25:                                        ; preds = %_ZN6icu_756number4impl17ParsedPatternInfo11ParserState4peekEv.exit33
  store i32 65555, ptr %status, align 4
  br label %if.end27

if.end27:                                         ; preds = %if.end21, %if.then14, %if.end, %entry, %if.then25, %_ZN6icu_756number4impl17ParsedPatternInfo11ParserState4peekEv.exit33
  ret void
}